; Function Attrs: mustprogress uwtable
define void @_ZN2cv8fastFreeEPv(ptr noundef %0) local_unnamed_addr #6 personality ptr @__gxx_personality_v0 {
  %2 = load atomic i8, ptr @_ZGVZN2cvL26isAlignedAllocationEnabledEvE11useMemalign acquire, align 8
  %3 = icmp eq i8 %2, 0
  br i1 %3, label %4, label %_ZN2cvL26isAlignedAllocationEnabledEv.exit, !prof !3

4:                                                ; preds = %1
  %5 = tail call i32 @__cxa_guard_acquire(ptr nonnull @_ZGVZN2cvL26isAlignedAllocationEnabledEvE11useMemalign) #16
  %.not.i = icmp eq i32 %5, 0
  br i1 %.not.i, label %_ZN2cvL26isAlignedAllocationEnabledEv.exit, label %6

6:                                                ; preds = %4
  %7 = invoke noundef zeroext i1 @_ZN2cv5utils29getConfigurationParameterBoolEPKcb(ptr noundef nonnull @.str, i1 noundef zeroext false)
          to label %_ZN2cvL28readMemoryAlignmentParameterEv.exit.i unwind label %9

_ZN2cvL28readMemoryAlignmentParameterEv.exit.i:   ; preds = %6
  %8 = zext i1 %7 to i8
  store i8 %8, ptr @_ZZN2cvL26isAlignedAllocationEnabledEvE11useMemalign, align 1, !tbaa !4
  tail call void @__cxa_guard_release(ptr nonnull @_ZGVZN2cvL26isAlignedAllocationEnabledEvE11useMemalign) #16
  br label %_ZN2cvL26isAlignedAllocationEnabledEv.exit

9:                                                ; preds = %6
  %10 = landingpad { ptr, i32 }
          cleanup
  tail call void @__cxa_guard_abort(ptr nonnull @_ZGVZN2cvL26isAlignedAllocationEnabledEvE11useMemalign) #16
  resume { ptr, i32 } %10

_ZN2cvL26isAlignedAllocationEnabledEv.exit:       ; preds = %1, %4, %_ZN2cvL28readMemoryAlignmentParameterEv.exit.i
  %11 = load i8, ptr @_ZZN2cvL26isAlignedAllocationEnabledEvE11useMemalign, align 1, !tbaa !4, !range !8, !noundef !9
  %12 = trunc nuw i8 %11 to i1
  br i1 %12, label %.sink.split, label %13

13:                                               ; preds = %_ZN2cvL26isAlignedAllocationEnabledEv.exit
  %.not = icmp eq ptr %0, null
  br i1 %.not, label %17, label %14

14:                                               ; preds = %13
  %15 = getelementptr inbounds i8, ptr %0, i64 -8
  %16 = load ptr, ptr %15, align 8, !tbaa !18
  br label %.sink.split

.sink.split:                                      ; preds = %_ZN2cvL26isAlignedAllocationEnabledEv.exit, %14
  %.sink = phi ptr [ %16, %14 ], [ %0, %_ZN2cvL26isAlignedAllocationEnabledEv.exit ]
  tail call void @free(ptr noundef %.sink) #16
  br label %17

17:                                               ; preds = %.sink.split, %13
  ret void
}